target datalayout = "e-m:e-p270:32:32-p271:32:32-p272:64:64-i64:64-i128:128-f80:128-n8:16:32:64-S128"
target triple = "x86_64-pc-linux-gnu"

%class.QVariant = type { %"struct.QVariant::Private" }
%"struct.QVariant::Private" = type { %union.anon.24, i64 }
%union.anon.24 = type { ptr, [16 x i8] }
%class.QChar = type { i16 }

@.str.3 = private unnamed_addr constant [7 x i8] c"column\00", align 1

; Function Attrs: mustprogress nounwind uwtable
define linkonce_odr noundef signext i8 @_ZNK5QChar8toLatin1Ev(ptr noundef nonnull align 2 dereferenceable(2) %0) #2 comdat align 2 {
  %2 = alloca ptr, align 8
  store ptr %0, ptr %2, align 8
  %3 = load ptr, ptr %2, align 8
  %4 = getelementptr inbounds %class.QChar, ptr %3, i32 0, i32 0
  %5 = load i16, ptr %4, align 2
  %6 = zext i16 %5 to i32
  %7 = icmp sgt i32 %6, 255
  br i1 %7, label %8, label %9

8:                                                ; preds = %1
  br label %13

9:                                                ; preds = %1
  %10 = getelementptr inbounds %class.QChar, ptr %3, i32 0, i32 0
  %11 = load i16, ptr %10, align 2
  %12 = trunc i16 %11 to i8
  br label %13

13:                                               ; preds = %9, %8
  %14 = phi i8 [ 0, %8 ], [ %12, %9 ]
  ret i8 %14
}

; Function Attrs: mustprogress uwtable
define void @_ZN16PacketListHeader12setAlignmentEP7QAction(ptr noundef nonnull align 8 dereferenceable(44) %0, ptr noundef %1) #0 align 2 personality ptr @__gxx_personality_v0 {
  %3 = alloca ptr, align 8
  %4 = alloca ptr, align 8
  %5 = alloca ptr, align 8
  %6 = alloca i32, align 4
  %7 = alloca %class.QVariant, align 8
  %8 = alloca ptr, align 8
  %9 = alloca i32, align 4
  %10 = alloca %class.QChar, align 2
  %11 = alloca %class.QVariant, align 8
  store ptr %0, ptr %3, align 8
  store ptr %1, ptr %4, align 8
  %12 = load ptr, ptr %3, align 8
  %13 = load ptr, ptr %4, align 8
  %14 = icmp ne ptr %13, null
  br i1 %14, label %16, label %15

15:                                               ; preds = %2
  br label %51

16:                                               ; preds = %2
  %17 = load ptr, ptr %4, align 8
  %18 = call noundef ptr @_ZNK7QAction11actionGroupEv(ptr noundef nonnull align 8 dereferenceable(16) %17)
  store ptr %18, ptr %5, align 8
  %19 = load ptr, ptr %5, align 8
  %20 = icmp ne ptr %19, null
  br i1 %20, label %22, label %21

21:                                               ; preds = %16
  br label %51

22:                                               ; preds = %16
  %23 = load ptr, ptr %5, align 8
  call void @_ZNK7QObject8propertyEPKc(ptr dead_on_unwind writable sret(%class.QVariant) align 8 %7, ptr noundef nonnull align 8 dereferenceable(16) %23, ptr noundef @.str.3)
  %24 = invoke noundef i32 @_ZNK8QVariant5toIntEPb(ptr noundef nonnull align 8 dereferenceable(32) %7, ptr noundef null)
          to label %25 unwind label %43

25:                                               ; preds = %22
  call void @_ZN8QVariantD1Ev(ptr noundef nonnull align 8 dereferenceable(32) %7) #9
  store i32 %24, ptr %6, align 4
  %26 = load i32, ptr %6, align 4
  %27 = icmp sge i32 %26, 0
  br i1 %27, label %28, label %51

28:                                               ; preds = %25
  %29 = load ptr, ptr %4, align 8
  call void @_ZNK7QAction4dataEv(ptr dead_on_unwind writable sret(%class.QVariant) align 8 %11, ptr noundef nonnull align 8 dereferenceable(16) %29)
  %30 = invoke i16 @_ZNK8QVariant6toCharEv(ptr noundef nonnull align 8 dereferenceable(32) %11)
          to label %31 unwind label %47

31:                                               ; preds = %28
  %32 = getelementptr inbounds %class.QChar, ptr %10, i32 0, i32 0
  store i16 %30, ptr %32, align 2
  call void @_ZN8QVariantD1Ev(ptr noundef nonnull align 8 dereferenceable(32) %11) #9
  %33 = load i32, ptr %6, align 4
  %34 = load ptr, ptr %4, align 8
  %35 = call noundef zeroext i1 @_ZNK7QAction9isCheckedEv(ptr noundef nonnull align 8 dereferenceable(16) %34)
  br i1 %35, label %36, label %39

36:                                               ; preds = %31
  %37 = call noundef signext i8 @_ZNK5QChar8toLatin1Ev(ptr noundef nonnull align 2 dereferenceable(2) %10) #9
  %38 = sext i8 %37 to i32
  br label %40

39:                                               ; preds = %31
  br label %40

40:                                               ; preds = %39, %36
  %41 = phi i32 [ %38, %36 ], [ 0, %39 ]
  %42 = trunc i32 %41 to i8
  call void @recent_set_column_xalign(i32 noundef %33, i8 noundef signext %42)
  call void @_ZN16PacketListHeader13updatePacketsEb(ptr noundef nonnull align 8 dereferenceable(44) %12, i1 noundef zeroext false)
  br label %51

43:                                               ; preds = %22
  %44 = landingpad { ptr, i32 }
          cleanup
  %45 = extractvalue { ptr, i32 } %44, 0
  store ptr %45, ptr %8, align 8
  %46 = extractvalue { ptr, i32 } %44, 1
  store i32 %46, ptr %9, align 4
  call void @_ZN8QVariantD1Ev(ptr noundef nonnull align 8 dereferenceable(32) %7) #9
  br label %52

47:                                               ; preds = %28
  %48 = landingpad { ptr, i32 }
          cleanup
  %49 = extractvalue { ptr, i32 } %48, 0
  store ptr %49, ptr %8, align 8
  %50 = extractvalue { ptr, i32 } %48, 1
  store i32 %50, ptr %9, align 4
  call void @_ZN8QVariantD1Ev(ptr noundef nonnull align 8 dereferenceable(32) %11) #9
  br label %52

51:                                               ; preds = %40, %25, %21, %15
  ret void

52:                                               ; preds = %47, %43
  %53 = load ptr, ptr %8, align 8
  %54 = load i32, ptr %9, align 4
  %55 = insertvalue { ptr, i32 } poison, ptr %53, 0
  %56 = insertvalue { ptr, i32 } %55, i32 %54, 1
  resume { ptr, i32 } %56
}