; Function Attrs: mustprogress uwtable
define void @_ZN16PacketListHeader12setAlignmentEP7QAction(ptr noundef nonnull align 8 dereferenceable(44) %0, ptr noundef %1) #0 align 2 personality ptr @__gxx_personality_v0 {
  %3 = alloca %class.QVariant, align 8
  %4 = alloca %class.QVariant, align 8
  %.not = icmp eq ptr %1, null
  br i1 %.not, label %22, label %5

5:                                                ; preds = %2
  %6 = tail call noundef ptr @_ZNK7QAction11actionGroupEv(ptr noundef nonnull align 8 dereferenceable(16) %1)
  %.not14 = icmp eq ptr %6, null
  br i1 %.not14, label %22, label %7

7:                                                ; preds = %5
  call void @_ZNK7QObject8propertyEPKc(ptr dead_on_unwind nonnull writable sret(%class.QVariant) align 8 %3, ptr noundef nonnull align 8 dereferenceable(16) %6, ptr noundef nonnull @.str.3)
  %8 = invoke noundef i32 @_ZNK8QVariant5toIntEPb(ptr noundef nonnull align 8 dereferenceable(32) %3, ptr noundef null)
          to label %9 unwind label %18

9:                                                ; preds = %7
  call void @_ZN8QVariantD1Ev(ptr noundef nonnull align 8 dereferenceable(32) %3) #10
  %10 = icmp sgt i32 %8, -1
  br i1 %10, label %11, label %22

11:                                               ; preds = %9
  call void @_ZNK7QAction4dataEv(ptr dead_on_unwind nonnull writable sret(%class.QVariant) align 8 %4, ptr noundef nonnull align 8 dereferenceable(16) %1)
  %12 = invoke i16 @_ZNK8QVariant6toCharEv(ptr noundef nonnull align 8 dereferenceable(32) %4)
          to label %13 unwind label %20

13:                                               ; preds = %11
  call void @_ZN8QVariantD1Ev(ptr noundef nonnull align 8 dereferenceable(32) %4) #10
  %14 = call noundef zeroext i1 @_ZNK7QAction9isCheckedEv(ptr noundef nonnull align 8 dereferenceable(16) %1)
  %15 = icmp ugt i16 %12, 255
  %16 = trunc i16 %12 to i8
  %spec.select.i = select i1 %15, i8 0, i8 %16
  %17 = select i1 %14, i8 %spec.select.i, i8 0
  call void @recent_set_column_xalign(i32 noundef %8, i8 noundef signext %17)
  call void @_ZN16PacketListHeader13updatePacketsEb(ptr noundef nonnull align 8 dereferenceable(44) %0, i1 noundef zeroext false)
  br label %22

18:                                               ; preds = %7
  %19 = landingpad { ptr, i32 }
          cleanup
  br label %23

20:                                               ; preds = %11
  %21 = landingpad { ptr, i32 }
          cleanup
  br label %23

22:                                               ; preds = %5, %2, %13, %9
  ret void

23:                                               ; preds = %20, %18
  %.sink = phi ptr [ %4, %20 ], [ %3, %18 ]
  %.pn = phi { ptr, i32 } [ %21, %20 ], [ %19, %18 ]
  call void @_ZN8QVariantD1Ev(ptr noundef nonnull align 8 dereferenceable(32) %.sink) #10
  resume { ptr, i32 } %.pn
}